target datalayout = "e-m:e-p270:32:32-p271:32:32-p272:64:64-i64:64-i128:128-f80:128-n8:16:32:64-S128"
target triple = "x86_64-pc-linux-gnu"

%struct.Intb_Man_t_ = type { ptr, ptr, i32, i32, i32, i32, i32, i32, i32, ptr, ptr, ptr, ptr, ptr, ptr, ptr, ptr, i32, i32, ptr, ptr, ptr, i32, i32, i64, i64, i64 }
%struct.Sto_Man_t_ = type { i32, i32, i32, i32, ptr, ptr, ptr, i32, i32, ptr }
%struct.Sto_Cls_t_ = type { ptr, ptr, ptr, i32, i32, [0 x i32] }
%struct.Vec_Int_t_ = type { i32, i32, ptr }
%struct.timespec = type { i64, i64 }

@.str.16 = private unnamed_addr constant [11 x i8] c"proof.cnf_\00", align 1
@.str.17 = private unnamed_addr constant [2 x i8] c"w\00", align 1
@.str.18 = private unnamed_addr constant [84 x i8] c"Vars = %d. Roots = %d. Learned = %d. Resol steps = %d.  Ave = %.2f.  Mem = %.2f MB\0A\00", align 1

; Function Attrs: inlinehint nounwind uwtable
define internal ptr @Intb_ManAigRead(ptr noundef %0, ptr noundef %1) #4 {
  %3 = alloca ptr, align 8
  %4 = alloca ptr, align 8
  store ptr %0, ptr %3, align 8, !tbaa !3
  store ptr %1, ptr %4, align 8, !tbaa !28
  %5 = load ptr, ptr %3, align 8, !tbaa !3
  %6 = getelementptr inbounds nuw %struct.Intb_Man_t_, ptr %5, i32 0, i32 16
  %7 = load ptr, ptr %6, align 8, !tbaa !58
  %8 = load ptr, ptr %4, align 8, !tbaa !28
  %9 = getelementptr inbounds nuw %struct.Sto_Cls_t_, ptr %8, i32 0, i32 3
  %10 = load i32, ptr %9, align 8, !tbaa !59
  %11 = sext i32 %10 to i64
  %12 = getelementptr inbounds ptr, ptr %7, i64 %11
  ret ptr %12
}

; Function Attrs: inlinehint nounwind uwtable
define internal i32 @Vec_IntSize(ptr noundef %0) #4 {
  %2 = alloca ptr, align 8
  store ptr %0, ptr %2, align 8, !tbaa !41
  %3 = load ptr, ptr %2, align 8, !tbaa !41
  %4 = getelementptr inbounds nuw %struct.Vec_Int_t_, ptr %3, i32 0, i32 1
  %5 = load i32, ptr %4, align 4, !tbaa !42
  ret i32 %5
}

; Function Attrs: inlinehint nounwind uwtable
define internal i64 @Abc_Clock() #4 {
  %1 = alloca i64, align 8
  %2 = alloca %struct.timespec, align 8
  %3 = alloca i32, align 4
  %4 = alloca i64, align 8
  call void @llvm.lifetime.start.p0(i64 16, ptr %2) #9
  %5 = call i32 @clock_gettime(i32 noundef 1, ptr noundef %2) #9
  %6 = icmp slt i32 %5, 0
  br i1 %6, label %7, label %8

7:                                                ; preds = %0
  store i64 -1, ptr %1, align 8
  store i32 1, ptr %3, align 4
  br label %19

8:                                                ; preds = %0
  call void @llvm.lifetime.start.p0(i64 8, ptr %4) #9
  %9 = getelementptr inbounds nuw %struct.timespec, ptr %2, i32 0, i32 0
  %10 = load i64, ptr %9, align 8, !tbaa !124
  %11 = mul nsw i64 %10, 1000000
  store i64 %11, ptr %4, align 8, !tbaa !63
  %12 = getelementptr inbounds nuw %struct.timespec, ptr %2, i32 0, i32 1
  %13 = load i64, ptr %12, align 8, !tbaa !126
  %14 = mul nsw i64 %13, 1000000
  %15 = sdiv i64 %14, 1000000000
  %16 = load i64, ptr %4, align 8, !tbaa !63
  %17 = add nsw i64 %16, %15
  store i64 %17, ptr %4, align 8, !tbaa !63
  %18 = load i64, ptr %4, align 8, !tbaa !63
  store i64 %18, ptr %1, align 8
  store i32 1, ptr %3, align 4
  call void @llvm.lifetime.end.p0(i64 8, ptr %4) #9
  br label %19

19:                                               ; preds = %8, %7
  call void @llvm.lifetime.end.p0(i64 16, ptr %2) #9
  %20 = load i64, ptr %1, align 8
  ret i64 %20
}

; Function Attrs: nounwind uwtable
define ptr @Intb_ManInterpolate(ptr noundef %0, ptr noundef %1, ptr noundef %2, i32 noundef %3) #0 {
  %5 = alloca ptr, align 8
  %6 = alloca ptr, align 8
  %7 = alloca ptr, align 8
  %8 = alloca i32, align 4
  %9 = alloca ptr, align 8
  %10 = alloca ptr, align 8
  %11 = alloca ptr, align 8
  %12 = alloca i32, align 4
  %13 = alloca i64, align 8
  store ptr %0, ptr %5, align 8, !tbaa !3
  store ptr %1, ptr %6, align 8, !tbaa !107
  store ptr %2, ptr %7, align 8, !tbaa !108
  store i32 %3, ptr %8, align 4, !tbaa !23
  call void @llvm.lifetime.start.p0(i64 8, ptr %9) #9
  call void @llvm.lifetime.start.p0(i64 8, ptr %10) #9
  call void @llvm.lifetime.start.p0(i64 8, ptr %11) #9
  call void @llvm.lifetime.start.p0(i64 4, ptr %12) #9
  store i32 1, ptr %12, align 4, !tbaa !23
  call void @llvm.lifetime.start.p0(i64 8, ptr %13) #9
  %14 = call i64 @Abc_Clock()
  store i64 %14, ptr %13, align 8, !tbaa !63
  %15 = load ptr, ptr %6, align 8, !tbaa !107
  %16 = load ptr, ptr %5, align 8, !tbaa !3
  %17 = getelementptr inbounds nuw %struct.Intb_Man_t_, ptr %16, i32 0, i32 0
  store ptr %15, ptr %17, align 8, !tbaa !24
  %18 = load i32, ptr %8, align 4, !tbaa !23
  %19 = load ptr, ptr %5, align 8, !tbaa !3
  %20 = getelementptr inbounds nuw %struct.Intb_Man_t_, ptr %19, i32 0, i32 2
  store i32 %18, ptr %20, align 8, !tbaa !103
  %21 = load ptr, ptr %7, align 8, !tbaa !108
  %22 = load ptr, ptr %5, align 8, !tbaa !3
  %23 = getelementptr inbounds nuw %struct.Intb_Man_t_, ptr %22, i32 0, i32 1
  store ptr %21, ptr %23, align 8, !tbaa !37
  %24 = call ptr @Aig_ManStart(i32 noundef 10000)
  store ptr %24, ptr %9, align 8, !tbaa !109
  %25 = load ptr, ptr %5, align 8, !tbaa !3
  %26 = getelementptr inbounds nuw %struct.Intb_Man_t_, ptr %25, i32 0, i32 14
  store ptr %24, ptr %26, align 8, !tbaa !94
  %27 = load ptr, ptr %5, align 8, !tbaa !3
  %28 = getelementptr inbounds nuw %struct.Intb_Man_t_, ptr %27, i32 0, i32 14
  %29 = load ptr, ptr %28, align 8, !tbaa !94
  %30 = load ptr, ptr %5, align 8, !tbaa !3
  %31 = getelementptr inbounds nuw %struct.Intb_Man_t_, ptr %30, i32 0, i32 1
  %32 = load ptr, ptr %31, align 8, !tbaa !37
  %33 = call i32 @Vec_IntSize(ptr noundef %32)
  %34 = sub nsw i32 %33, 1
  %35 = call ptr @Aig_IthVar(ptr noundef %29, i32 noundef %34)
  %36 = load ptr, ptr %5, align 8, !tbaa !3
  call void @Intb_ManResize(ptr noundef %36)
  %37 = load ptr, ptr %5, align 8, !tbaa !3
  call void @Intb_ManPrepareInter(ptr noundef %37)
  %38 = load ptr, ptr %5, align 8, !tbaa !3
  %39 = getelementptr inbounds nuw %struct.Intb_Man_t_, ptr %38, i32 0, i32 4
  %40 = load i32, ptr %39, align 8, !tbaa !21
  %41 = icmp ne i32 %40, 0
  br i1 %41, label %42, label %48

42:                                               ; preds = %4
  %43 = call noalias ptr @fopen(ptr noundef @.str.16, ptr noundef @.str.17)
  %44 = load ptr, ptr %5, align 8, !tbaa !3
  %45 = getelementptr inbounds nuw %struct.Intb_Man_t_, ptr %44, i32 0, i32 20
  store ptr %43, ptr %45, align 8, !tbaa !72
  %46 = load ptr, ptr %5, align 8, !tbaa !3
  %47 = getelementptr inbounds nuw %struct.Intb_Man_t_, ptr %46, i32 0, i32 18
  store i32 0, ptr %47, align 4, !tbaa !45
  br label %48

48:                                               ; preds = %42, %4
  %49 = load ptr, ptr %5, align 8, !tbaa !3
  %50 = getelementptr inbounds nuw %struct.Intb_Man_t_, ptr %49, i32 0, i32 0
  %51 = load ptr, ptr %50, align 8, !tbaa !24
  %52 = getelementptr inbounds nuw %struct.Sto_Man_t_, ptr %51, i32 0, i32 4
  %53 = load ptr, ptr %52, align 8, !tbaa !25
  store ptr %53, ptr %11, align 8, !tbaa !28
  br label %54

54:                                               ; preds = %69, %48
  %55 = load ptr, ptr %11, align 8, !tbaa !28
  %56 = icmp ne ptr %55, null
  br i1 %56, label %57, label %64

57:                                               ; preds = %54
  %58 = load ptr, ptr %11, align 8, !tbaa !28
  %59 = getelementptr inbounds nuw %struct.Sto_Cls_t_, ptr %58, i32 0, i32 4
  %60 = load i32, ptr %59, align 4
  %61 = lshr i32 %60, 1
  %62 = and i32 %61, 1
  %63 = icmp ne i32 %62, 0
  br label %64

64:                                               ; preds = %57, %54
  %65 = phi i1 [ false, %54 ], [ %63, %57 ]
  br i1 %65, label %66, label %73

66:                                               ; preds = %64
  %67 = load ptr, ptr %5, align 8, !tbaa !3
  %68 = load ptr, ptr %11, align 8, !tbaa !28
  call void @Intb_ManProofWriteOne(ptr noundef %67, ptr noundef %68)
  br label %69

69:                                               ; preds = %66
  %70 = load ptr, ptr %11, align 8, !tbaa !28
  %71 = getelementptr inbounds nuw %struct.Sto_Cls_t_, ptr %70, i32 0, i32 0
  %72 = load ptr, ptr %71, align 8, !tbaa !32
  store ptr %72, ptr %11, align 8, !tbaa !28
  br label %54, !llvm.loop !110

73:                                               ; preds = %64
  %74 = load ptr, ptr %5, align 8, !tbaa !3
  %75 = call i32 @Intb_ManProcessRoots(ptr noundef %74)
  %76 = icmp ne i32 %75, 0
  br i1 %76, label %77, label %106

77:                                               ; preds = %73
  %78 = load ptr, ptr %5, align 8, !tbaa !3
  %79 = getelementptr inbounds nuw %struct.Intb_Man_t_, ptr %78, i32 0, i32 0
  %80 = load ptr, ptr %79, align 8, !tbaa !24
  %81 = getelementptr inbounds nuw %struct.Sto_Man_t_, ptr %80, i32 0, i32 4
  %82 = load ptr, ptr %81, align 8, !tbaa !25
  store ptr %82, ptr %11, align 8, !tbaa !28
  br label %83

83:                                               ; preds = %101, %77
  %84 = load ptr, ptr %11, align 8, !tbaa !28
  %85 = icmp ne ptr %84, null
  br i1 %85, label %86, label %105

86:                                               ; preds = %83
  %87 = load ptr, ptr %11, align 8, !tbaa !28
  %88 = getelementptr inbounds nuw %struct.Sto_Cls_t_, ptr %87, i32 0, i32 4
  %89 = load i32, ptr %88, align 4
  %90 = lshr i32 %89, 1
  %91 = and i32 %90, 1
  %92 = icmp ne i32 %91, 0
  br i1 %92, label %93, label %94

93:                                               ; preds = %86
  br label %101

94:                                               ; preds = %86
  %95 = load ptr, ptr %5, align 8, !tbaa !3
  %96 = load ptr, ptr %11, align 8, !tbaa !28
  %97 = call i32 @Intb_ManProofRecordOne(ptr noundef %95, ptr noundef %96)
  %98 = icmp ne i32 %97, 0
  br i1 %98, label %100, label %99

99:                                               ; preds = %94
  store i32 0, ptr %12, align 4, !tbaa !23
  br label %105

100:                                              ; preds = %94
  br label %101

101:                                              ; preds = %100, %93
  %102 = load ptr, ptr %11, align 8, !tbaa !28
  %103 = getelementptr inbounds nuw %struct.Sto_Cls_t_, ptr %102, i32 0, i32 0
  %104 = load ptr, ptr %103, align 8, !tbaa !32
  store ptr %104, ptr %11, align 8, !tbaa !28
  br label %83, !llvm.loop !111

105:                                              ; preds = %99, %83
  br label %106

106:                                              ; preds = %105, %73
  %107 = load ptr, ptr %5, align 8, !tbaa !3
  %108 = getelementptr inbounds nuw %struct.Intb_Man_t_, ptr %107, i32 0, i32 4
  %109 = load i32, ptr %108, align 8, !tbaa !21
  %110 = icmp ne i32 %109, 0
  br i1 %110, label %111, label %118

111:                                              ; preds = %106
  %112 = load ptr, ptr %5, align 8, !tbaa !3
  %113 = getelementptr inbounds nuw %struct.Intb_Man_t_, ptr %112, i32 0, i32 20
  %114 = load ptr, ptr %113, align 8, !tbaa !72
  %115 = call i32 @fclose(ptr noundef %114)
  %116 = load ptr, ptr %5, align 8, !tbaa !3
  %117 = getelementptr inbounds nuw %struct.Intb_Man_t_, ptr %116, i32 0, i32 20
  store ptr null, ptr %117, align 8, !tbaa !72
  br label %118

118:                                              ; preds = %111, %106
  %119 = load i32, ptr %8, align 4, !tbaa !23
  %120 = icmp ne i32 %119, 0
  br i1 %120, label %121, label %185

121:                                              ; preds = %118
  %122 = load ptr, ptr %5, align 8, !tbaa !3
  %123 = getelementptr inbounds nuw %struct.Intb_Man_t_, ptr %122, i32 0, i32 0
  %124 = load ptr, ptr %123, align 8, !tbaa !24
  %125 = getelementptr inbounds nuw %struct.Sto_Man_t_, ptr %124, i32 0, i32 0
  %126 = load i32, ptr %125, align 8, !tbaa !39
  %127 = load ptr, ptr %5, align 8, !tbaa !3
  %128 = getelementptr inbounds nuw %struct.Intb_Man_t_, ptr %127, i32 0, i32 0
  %129 = load ptr, ptr %128, align 8, !tbaa !24
  %130 = getelementptr inbounds nuw %struct.Sto_Man_t_, ptr %129, i32 0, i32 1
  %131 = load i32, ptr %130, align 4, !tbaa !112
  %132 = load ptr, ptr %5, align 8, !tbaa !3
  %133 = getelementptr inbounds nuw %struct.Intb_Man_t_, ptr %132, i32 0, i32 0
  %134 = load ptr, ptr %133, align 8, !tbaa !24
  %135 = getelementptr inbounds nuw %struct.Sto_Man_t_, ptr %134, i32 0, i32 2
  %136 = load i32, ptr %135, align 8, !tbaa !54
  %137 = load ptr, ptr %5, align 8, !tbaa !3
  %138 = getelementptr inbounds nuw %struct.Intb_Man_t_, ptr %137, i32 0, i32 0
  %139 = load ptr, ptr %138, align 8, !tbaa !24
  %140 = getelementptr inbounds nuw %struct.Sto_Man_t_, ptr %139, i32 0, i32 1
  %141 = load i32, ptr %140, align 4, !tbaa !112
  %142 = sub nsw i32 %136, %141
  %143 = load ptr, ptr %5, align 8, !tbaa !3
  %144 = getelementptr inbounds nuw %struct.Intb_Man_t_, ptr %143, i32 0, i32 18
  %145 = load i32, ptr %144, align 4, !tbaa !45
  %146 = load ptr, ptr %5, align 8, !tbaa !3
  %147 = getelementptr inbounds nuw %struct.Intb_Man_t_, ptr %146, i32 0, i32 18
  %148 = load i32, ptr %147, align 4, !tbaa !45
  %149 = load ptr, ptr %5, align 8, !tbaa !3
  %150 = getelementptr inbounds nuw %struct.Intb_Man_t_, ptr %149, i32 0, i32 0
  %151 = load ptr, ptr %150, align 8, !tbaa !24
  %152 = getelementptr inbounds nuw %struct.Sto_Man_t_, ptr %151, i32 0, i32 1
  %153 = load i32, ptr %152, align 4, !tbaa !112
  %154 = sub nsw i32 %148, %153
  %155 = sitofp i32 %154 to double
  %156 = fmul double 1.000000e+00, %155
  %157 = load ptr, ptr %5, align 8, !tbaa !3
  %158 = getelementptr inbounds nuw %struct.Intb_Man_t_, ptr %157, i32 0, i32 0
  %159 = load ptr, ptr %158, align 8, !tbaa !24
  %160 = getelementptr inbounds nuw %struct.Sto_Man_t_, ptr %159, i32 0, i32 2
  %161 = load i32, ptr %160, align 8, !tbaa !54
  %162 = load ptr, ptr %5, align 8, !tbaa !3
  %163 = getelementptr inbounds nuw %struct.Intb_Man_t_, ptr %162, i32 0, i32 0
  %164 = load ptr, ptr %163, align 8, !tbaa !24
  %165 = getelementptr inbounds nuw %struct.Sto_Man_t_, ptr %164, i32 0, i32 1
  %166 = load i32, ptr %165, align 4, !tbaa !112
  %167 = sub nsw i32 %161, %166
  %168 = sitofp i32 %167 to double
  %169 = fdiv double %156, %168
  %170 = load ptr, ptr %5, align 8, !tbaa !3
  %171 = getelementptr inbounds nuw %struct.Intb_Man_t_, ptr %170, i32 0, i32 0
  %172 = load ptr, ptr %171, align 8, !tbaa !24
  %173 = call i32 @Sto_ManMemoryReport(ptr noundef %172)
  %174 = sitofp i32 %173 to double
  %175 = fmul double 1.000000e+00, %174
  %176 = fdiv double %175, 0x4130000000000000
  %177 = call i32 (ptr, ...) @printf(ptr noundef @.str.18, i32 noundef %126, i32 noundef %131, i32 noundef %142, i32 noundef %145, double noundef %169, double noundef %176)
  %178 = call i64 @Abc_Clock()
  %179 = load i64, ptr %13, align 8, !tbaa !63
  %180 = sub nsw i64 %178, %179
  %181 = load ptr, ptr %5, align 8, !tbaa !3
  %182 = getelementptr inbounds nuw %struct.Intb_Man_t_, ptr %181, i32 0, i32 26
  %183 = load i64, ptr %182, align 8, !tbaa !113
  %184 = add nsw i64 %183, %180
  store i64 %184, ptr %182, align 8, !tbaa !113
  br label %185

185:                                              ; preds = %121, %118
  %186 = load ptr, ptr %5, align 8, !tbaa !3
  %187 = load ptr, ptr %5, align 8, !tbaa !3
  %188 = getelementptr inbounds nuw %struct.Intb_Man_t_, ptr %187, i32 0, i32 0
  %189 = load ptr, ptr %188, align 8, !tbaa !24
  %190 = getelementptr inbounds nuw %struct.Sto_Man_t_, ptr %189, i32 0, i32 5
  %191 = load ptr, ptr %190, align 8, !tbaa !114
  %192 = call ptr @Intb_ManAigRead(ptr noundef %186, ptr noundef %191)
  %193 = load ptr, ptr %192, align 8, !tbaa !92
  store ptr %193, ptr %10, align 8, !tbaa !92
  %194 = load ptr, ptr %9, align 8, !tbaa !109
  %195 = load ptr, ptr %10, align 8, !tbaa !92
  %196 = call ptr @Aig_ObjCreateCo(ptr noundef %194, ptr noundef %195)
  %197 = load ptr, ptr %9, align 8, !tbaa !109
  %198 = call i32 @Aig_ManCleanup(ptr noundef %197)
  %199 = load ptr, ptr %5, align 8, !tbaa !3
  %200 = getelementptr inbounds nuw %struct.Intb_Man_t_, ptr %199, i32 0, i32 14
  store ptr null, ptr %200, align 8, !tbaa !94
  %201 = load ptr, ptr %9, align 8, !tbaa !109
  call void @llvm.lifetime.end.p0(i64 8, ptr %13) #9
  call void @llvm.lifetime.end.p0(i64 4, ptr %12) #9
  call void @llvm.lifetime.end.p0(i64 8, ptr %11) #9
  call void @llvm.lifetime.end.p0(i64 8, ptr %10) #9
  call void @llvm.lifetime.end.p0(i64 8, ptr %9) #9
  ret ptr %201
}