; Function Attrs: nounwind uwtable
define noundef ptr @Intb_ManInterpolate(ptr noundef captures(none) initializes((0, 20), (88, 96), (116, 120)) %0, ptr noundef %1, ptr noundef %2, i32 noundef %3) local_unnamed_addr #5 {
  %5 = alloca %struct.timespec, align 8
  %6 = alloca %struct.timespec, align 8
  call void @llvm.lifetime.start.p0(i64 16, ptr nonnull %6) #20
  %7 = call i32 @clock_gettime(i32 noundef 1, ptr noundef nonnull %6) #20
  %8 = icmp slt i32 %7, 0
  br i1 %8, label %Abc_Clock.exit, label %9

9:                                                ; preds = %4
  %10 = load i64, ptr %6, align 8, !tbaa !55
  %.neg61 = mul i64 %10, -1000000
  %11 = getelementptr inbounds nuw i8, ptr %6, i64 8
  %12 = load i64, ptr %11, align 8, !tbaa !57
  %.neg = sdiv i64 %12, -1000
  %.neg62 = add i64 %.neg, %.neg61
  br label %Abc_Clock.exit

Abc_Clock.exit:                                   ; preds = %4, %9
  %.0.i.neg = phi i64 [ %.neg62, %9 ], [ 1, %4 ]
  call void @llvm.lifetime.end.p0(i64 16, ptr nonnull %6) #20
  store ptr %1, ptr %0, align 8, !tbaa !20
  %13 = getelementptr inbounds nuw i8, ptr %0, i64 16
  store i32 %3, ptr %13, align 8, !tbaa !95
  %14 = getelementptr inbounds nuw i8, ptr %0, i64 8
  store ptr %2, ptr %14, align 8, !tbaa !30
  %15 = call ptr @Aig_ManStart(i32 noundef 10000) #20
  %16 = getelementptr inbounds nuw i8, ptr %0, i64 88
  store ptr %15, ptr %16, align 8, !tbaa !75
  %17 = load ptr, ptr %14, align 8, !tbaa !30
  %18 = getelementptr i8, ptr %17, i64 4
  %.val = load i32, ptr %18, align 4, !tbaa !31
  %19 = add nsw i32 %.val, -1
  %20 = call ptr @Aig_IthVar(ptr noundef %15, i32 noundef %19) #20
  call void @Intb_ManResize(ptr noundef nonnull %0)
  call void @Intb_ManPrepareInter(ptr noundef nonnull %0)
  %21 = getelementptr inbounds nuw i8, ptr %0, i64 24
  %22 = load i32, ptr %21, align 8, !tbaa !65
  %.not = icmp eq i32 %22, 0
  br i1 %.not, label %27, label %23

23:                                               ; preds = %Abc_Clock.exit
  %24 = call noalias ptr @fopen(ptr noundef nonnull @.str.16, ptr noundef nonnull @.str.17)
  %25 = getelementptr inbounds nuw i8, ptr %0, i64 128
  store ptr %24, ptr %25, align 8, !tbaa !66
  %26 = getelementptr inbounds nuw i8, ptr %0, i64 116
  store i32 0, ptr %26, align 4, !tbaa !35
  br label %27

27:                                               ; preds = %23, %Abc_Clock.exit
  %28 = load ptr, ptr %0, align 8, !tbaa !20
  %29 = getelementptr inbounds nuw i8, ptr %28, i64 16
  %.063 = load ptr, ptr %29, align 8, !tbaa !21
  %.not4964 = icmp eq ptr %.063, null
  br i1 %.not4964, label %.critedge, label %.lr.ph

.lr.ph:                                           ; preds = %27, %33
  %.065 = phi ptr [ %.0, %33 ], [ %.063, %27 ]
  %30 = getelementptr inbounds nuw i8, ptr %.065, i64 28
  %31 = load i32, ptr %30, align 4
  %32 = and i32 %31, 2
  %.not50 = icmp eq i32 %32, 0
  br i1 %.not50, label %.critedge, label %33

33:                                               ; preds = %.lr.ph
  call void @Intb_ManProofWriteOne(ptr noundef nonnull %0, ptr noundef nonnull %.065)
  %.0 = load ptr, ptr %.065, align 8, !tbaa !21
  %.not49 = icmp eq ptr %.0, null
  br i1 %.not49, label %.critedge, label %.lr.ph, !llvm.loop !106

.critedge:                                        ; preds = %.lr.ph, %33, %27
  %34 = call i32 @Intb_ManProcessRoots(ptr noundef nonnull %0)
  %.not51 = icmp eq i32 %34, 0
  br i1 %.not51, label %.loopexit, label %35

35:                                               ; preds = %.critedge
  %36 = load ptr, ptr %0, align 8, !tbaa !20
  %37 = getelementptr inbounds nuw i8, ptr %36, i64 16
  %.167 = load ptr, ptr %37, align 8, !tbaa !21
  %.not5268 = icmp eq ptr %.167, null
  br i1 %.not5268, label %.loopexit, label %.lr.ph70

.lr.ph70:                                         ; preds = %35, %43
  %.169 = phi ptr [ %.1, %43 ], [ %.167, %35 ]
  %38 = getelementptr inbounds nuw i8, ptr %.169, i64 28
  %39 = load i32, ptr %38, align 4
  %40 = and i32 %39, 2
  %.not53 = icmp eq i32 %40, 0
  br i1 %.not53, label %41, label %43

41:                                               ; preds = %.lr.ph70
  %42 = call i32 @Intb_ManProofRecordOne(ptr noundef nonnull %0, ptr noundef nonnull %.169)
  %.not54 = icmp eq i32 %42, 0
  br i1 %.not54, label %.loopexit, label %43

43:                                               ; preds = %41, %.lr.ph70
  %.1 = load ptr, ptr %.169, align 8, !tbaa !21
  %.not52 = icmp eq ptr %.1, null
  br i1 %.not52, label %.loopexit, label %.lr.ph70, !llvm.loop !107

.loopexit:                                        ; preds = %43, %41, %35, %.critedge
  %44 = load i32, ptr %21, align 8, !tbaa !65
  %.not55 = icmp eq i32 %44, 0
  br i1 %.not55, label %49, label %45

45:                                               ; preds = %.loopexit
  %46 = getelementptr inbounds nuw i8, ptr %0, i64 128
  %47 = load ptr, ptr %46, align 8, !tbaa !66
  %48 = call i32 @fclose(ptr noundef %47)
  store ptr null, ptr %46, align 8, !tbaa !66
  br label %49

49:                                               ; preds = %45, %.loopexit
  %.not56 = icmp eq i32 %3, 0
  %.pre72 = load ptr, ptr %0, align 8, !tbaa !20
  br i1 %.not56, label %80, label %50

50:                                               ; preds = %49
  %51 = load i32, ptr %.pre72, align 8, !tbaa !37
  %52 = getelementptr inbounds nuw i8, ptr %.pre72, i64 4
  %53 = load i32, ptr %52, align 4, !tbaa !108
  %54 = getelementptr inbounds nuw i8, ptr %.pre72, i64 8
  %55 = load i32, ptr %54, align 8, !tbaa !46
  %56 = sub nsw i32 %55, %53
  %57 = getelementptr inbounds nuw i8, ptr %0, i64 116
  %58 = load i32, ptr %57, align 4, !tbaa !35
  %59 = sub nsw i32 %58, %53
  %60 = sitofp i32 %59 to double
  %61 = sitofp i32 %56 to double
  %62 = fdiv double %60, %61
  %63 = call i32 @Sto_ManMemoryReport(ptr noundef nonnull %.pre72) #20
  %64 = sitofp i32 %63 to double
  %65 = fmul double %64, 0x3EB0000000000000
  %66 = call i32 (ptr, ...) @printf(ptr noundef nonnull dereferenceable(1) @.str.18, i32 noundef %51, i32 noundef %53, i32 noundef %56, i32 noundef %58, double noundef %62, double noundef %65)
  call void @llvm.lifetime.start.p0(i64 16, ptr nonnull %5) #20
  %67 = call i32 @clock_gettime(i32 noundef 1, ptr noundef nonnull %5) #20
  %68 = icmp slt i32 %67, 0
  br i1 %68, label %Abc_Clock.exit60, label %69

69:                                               ; preds = %50
  %70 = load i64, ptr %5, align 8, !tbaa !55
  %71 = mul nsw i64 %70, 1000000
  %72 = getelementptr inbounds nuw i8, ptr %5, i64 8
  %73 = load i64, ptr %72, align 8, !tbaa !57
  %74 = sdiv i64 %73, 1000
  %75 = add nsw i64 %74, %71
  br label %Abc_Clock.exit60

Abc_Clock.exit60:                                 ; preds = %50, %69
  %.0.i59 = phi i64 [ %75, %69 ], [ -1, %50 ]
  call void @llvm.lifetime.end.p0(i64 16, ptr nonnull %5) #20
  %76 = add i64 %.0.i59, %.0.i.neg
  %77 = getelementptr inbounds nuw i8, ptr %0, i64 168
  %78 = load i64, ptr %77, align 8, !tbaa !109
  %79 = add nsw i64 %76, %78
  store i64 %79, ptr %77, align 8, !tbaa !109
  %.pre = load ptr, ptr %0, align 8, !tbaa !20
  br label %80

80:                                               ; preds = %Abc_Clock.exit60, %49
  %81 = phi ptr [ %.pre, %Abc_Clock.exit60 ], [ %.pre72, %49 ]
  %82 = getelementptr inbounds nuw i8, ptr %81, i64 24
  %83 = load ptr, ptr %82, align 8, !tbaa !110
  %84 = getelementptr i8, ptr %0, i64 104
  %.val57 = load ptr, ptr %84, align 8, !tbaa !50
  %85 = getelementptr i8, ptr %83, i64 24
  %.val58 = load i32, ptr %85, align 8, !tbaa !51
  %86 = sext i32 %.val58 to i64
  %87 = getelementptr inbounds ptr, ptr %.val57, i64 %86
  %88 = load ptr, ptr %87, align 8, !tbaa !72
  %89 = call ptr @Aig_ObjCreateCo(ptr noundef %15, ptr noundef %88) #20
  %90 = call i32 @Aig_ManCleanup(ptr noundef %15) #20
  store ptr null, ptr %16, align 8, !tbaa !75
  ret ptr %15
}